target datalayout = "e-m:e-p270:32:32-p271:32:32-p272:64:64-i64:64-i128:128-f80:128-n8:16:32:64-S128"
target triple = "x86_64-pc-linux-gnu"

@max_alloc_size = internal global i64 2147483647, align 8

; Function Attrs: nounwind uwtable
define void @av_free(ptr noundef %0) #0 {
  %2 = alloca ptr, align 8
  store ptr %0, ptr %2, align 8, !tbaa !8
  %3 = load ptr, ptr %2, align 8, !tbaa !8
  call void @free(ptr noundef %3) #11
  ret void
}

; Function Attrs: nounwind uwtable
define ptr @av_realloc(ptr noundef %0, i64 noundef %1) #0 {
  %3 = alloca ptr, align 8
  %4 = alloca ptr, align 8
  %5 = alloca i64, align 8
  %6 = alloca ptr, align 8
  %7 = alloca i64, align 8
  %8 = alloca i32, align 4
  store ptr %0, ptr %4, align 8, !tbaa !8
  store i64 %1, ptr %5, align 8, !tbaa !4
  call void @llvm.lifetime.start.p0(i64 8, ptr %6) #11
  %9 = load i64, ptr %5, align 8, !tbaa !4
  %10 = load atomic i64, ptr @max_alloc_size monotonic, align 8
  store i64 %10, ptr %7, align 8
  %11 = load i64, ptr %7, align 8, !tbaa !4
  %12 = icmp ugt i64 %9, %11
  br i1 %12, label %13, label %14

13:                                               ; preds = %2
  store ptr null, ptr %3, align 8
  store i32 1, ptr %8, align 4
  br label %25

14:                                               ; preds = %2
  %15 = load ptr, ptr %4, align 8, !tbaa !8
  %16 = load i64, ptr %5, align 8, !tbaa !4
  %17 = load i64, ptr %5, align 8, !tbaa !4
  %18 = icmp ne i64 %17, 0
  %19 = xor i1 %18, true
  %20 = zext i1 %19 to i32
  %21 = sext i32 %20 to i64
  %22 = add i64 %16, %21
  %23 = call ptr @realloc(ptr noundef %15, i64 noundef %22) #12
  store ptr %23, ptr %6, align 8, !tbaa !8
  %24 = load ptr, ptr %6, align 8, !tbaa !8
  store ptr %24, ptr %3, align 8
  store i32 1, ptr %8, align 4
  br label %25

25:                                               ; preds = %14, %13
  call void @llvm.lifetime.end.p0(i64 8, ptr %6) #11
  %26 = load ptr, ptr %3, align 8
  ret ptr %26
}

; Function Attrs: nounwind uwtable
define void @av_freep(ptr noundef %0) #0 {
  %2 = alloca ptr, align 8
  %3 = alloca ptr, align 8
  %4 = alloca ptr, align 8
  store ptr %0, ptr %2, align 8, !tbaa !8
  call void @llvm.lifetime.start.p0(i64 8, ptr %3) #11
  %5 = load ptr, ptr %2, align 8, !tbaa !8
  call void @llvm.memcpy.p0.p0.i64(ptr align 8 %3, ptr align 1 %5, i64 8, i1 false)
  %6 = load ptr, ptr %2, align 8, !tbaa !8
  store ptr null, ptr %4, align 8, !tbaa !8
  call void @llvm.memcpy.p0.p0.i64(ptr align 1 %6, ptr align 8 %4, i64 8, i1 false)
  %7 = load ptr, ptr %3, align 8, !tbaa !8
  call void @av_free(ptr noundef %7)
  call void @llvm.lifetime.end.p0(i64 8, ptr %3) #11
  ret void
}

; Function Attrs: nounwind uwtable
define i32 @av_reallocp(ptr noundef %0, i64 noundef %1) #0 {
  %3 = alloca i32, align 4
  %4 = alloca ptr, align 8
  %5 = alloca i64, align 8
  %6 = alloca ptr, align 8
  %7 = alloca i32, align 4
  store ptr %0, ptr %4, align 8, !tbaa !8
  store i64 %1, ptr %5, align 8, !tbaa !4
  call void @llvm.lifetime.start.p0(i64 8, ptr %6) #11
  %8 = load i64, ptr %5, align 8, !tbaa !4
  %9 = icmp ne i64 %8, 0
  br i1 %9, label %12, label %10

10:                                               ; preds = %2
  %11 = load ptr, ptr %4, align 8, !tbaa !8
  call void @av_freep(ptr noundef %11)
  store i32 0, ptr %3, align 4
  store i32 1, ptr %7, align 4
  br label %23

12:                                               ; preds = %2
  %13 = load ptr, ptr %4, align 8, !tbaa !8
  call void @llvm.memcpy.p0.p0.i64(ptr align 8 %6, ptr align 1 %13, i64 8, i1 false)
  %14 = load ptr, ptr %6, align 8, !tbaa !8
  %15 = load i64, ptr %5, align 8, !tbaa !4
  %16 = call ptr @av_realloc(ptr noundef %14, i64 noundef %15)
  store ptr %16, ptr %6, align 8, !tbaa !8
  %17 = load ptr, ptr %6, align 8, !tbaa !8
  %18 = icmp ne ptr %17, null
  br i1 %18, label %21, label %19

19:                                               ; preds = %12
  %20 = load ptr, ptr %4, align 8, !tbaa !8
  call void @av_freep(ptr noundef %20)
  store i32 -12, ptr %3, align 4
  store i32 1, ptr %7, align 4
  br label %23

21:                                               ; preds = %12
  %22 = load ptr, ptr %4, align 8, !tbaa !8
  call void @llvm.memcpy.p0.p0.i64(ptr align 1 %22, ptr align 8 %6, i64 8, i1 false)
  store i32 0, ptr %3, align 4
  store i32 1, ptr %7, align 4
  br label %23

23:                                               ; preds = %21, %19, %10
  call void @llvm.lifetime.end.p0(i64 8, ptr %6) #11
  %24 = load i32, ptr %3, align 4
  ret i32 %24
}