; Function Attrs: mustprogress nounwind willreturn uwtable
define range(i32 -12, 1) i32 @av_reallocp(ptr noundef captures(none) %0, i64 noundef %1) local_unnamed_addr #4 {
  %.not = icmp eq i64 %1, 0
  %.0.copyload1.i = load ptr, ptr %0, align 1
  br i1 %.not, label %3, label %4

3:                                                ; preds = %2
  store ptr null, ptr %0, align 1
  tail call void @free(ptr noundef %.0.copyload1.i) #21
  br label %9

4:                                                ; preds = %2
  %5 = load atomic i64, ptr @max_alloc_size monotonic, align 8
  %6 = icmp ugt i64 %1, %5
  br i1 %6, label %av_realloc.exit.thread, label %av_realloc.exit

av_realloc.exit:                                  ; preds = %4
  %7 = tail call ptr @realloc(ptr noundef %.0.copyload1.i, i64 noundef %1) #22
  %.not11 = icmp eq ptr %7, null
  br i1 %.not11, label %av_realloc.exit.av_realloc.exit.thread_crit_edge, label %8

av_realloc.exit.av_realloc.exit.thread_crit_edge: ; preds = %av_realloc.exit
  %.0.copyload1.i12.pre = load ptr, ptr %0, align 1
  br label %av_realloc.exit.thread

av_realloc.exit.thread:                           ; preds = %av_realloc.exit.av_realloc.exit.thread_crit_edge, %4
  %.0.copyload1.i12 = phi ptr [ %.0.copyload1.i12.pre, %av_realloc.exit.av_realloc.exit.thread_crit_edge ], [ %.0.copyload1.i, %4 ]
  store ptr null, ptr %0, align 1
  tail call void @free(ptr noundef %.0.copyload1.i12) #21
  br label %9

8:                                                ; preds = %av_realloc.exit
  store ptr %7, ptr %0, align 1
  br label %9

9:                                                ; preds = %8, %av_realloc.exit.thread, %3
  %.0 = phi i32 [ 0, %8 ], [ -12, %av_realloc.exit.thread ], [ 0, %3 ]
  ret i32 %.0
}